	.file	"file2a.c"
	.text
	.globl	p
	.type	p, @function
p:
.LFB6:
	.cfi_startproc
	endbr64
	pushq	%rbp
	.cfi_def_cfa_offset 16
	.cfi_offset 6, -16
	movq	%rsp, %rbp
	.cfi_def_cfa_register 6
	movl	%edi, -4(%rbp)
	movl	%esi, -8(%rbp)
	movl	-4(%rbp), %eax
	subl	$2, %eax
	movslq	%eax, %rdx
	movl	-8(%rbp), %eax
	cltq
	imulq	%rax, %rdx
	movl	-8(%rbp), %eax
	subl	$1, %eax
	cltq
	imulq	%rdx, %rax
	movq	%rax, %rdx
	shrq	$63, %rdx
	addq	%rdx, %rax
	sarq	%rax
	movq	%rax, %rdx
	movl	-8(%rbp), %eax
	cltq
	addq	%rdx, %rax
	popq	%rbp
	.cfi_def_cfa 7, 8
	ret
	.cfi_endproc
.LFE6:
	.size	p, .-p
	.section	.rodata
.LC0:
	.string	"%lld "
	.text
	.globl	main
	.type	main, @function
main:
.LFB7:
	.cfi_startproc
	endbr64
	pushq	%rbp
	.cfi_def_cfa_offset 16
	.cfi_offset 6, -16
	movq	%rsp, %rbp
	.cfi_def_cfa_register 6
	subq	$16, %rsp
	movl	$0, %edi
	call	time@PLT
	movl	%eax, %edi
	call	srand@PLT
	call	rand@PLT
	movslq	%eax, %rdx
	imulq	$274877907, %rdx, %rdx
	shrq	$32, %rdx
	movl	%edx, %ecx
	sarl	$5, %ecx
	cltd
	subl	%edx, %ecx
	movl	%ecx, %edx
	imull	$500, %edx, %edx
	subl	%edx, %eax
	movl	%eax, %edx
	leal	1(%rdx), %eax
	movl	%eax, -12(%rbp)
	movl	$1, -16(%rbp)
	jmp	.L4
.L5:
	movl	-16(%rbp), %edx
	movl	-12(%rbp), %eax
	movl	%edx, %esi
	movl	%eax, %edi
	call	p
	movq	%rax, -8(%rbp)
	movq	-8(%rbp), %rax
	movq	%rax, %rsi
	leaq	.LC0(%rip), %rdi
	movl	$0, %eax
	call	printf@PLT
	addl	$1, -16(%rbp)
.L4:
	cmpl	$256, -16(%rbp)
	jle	.L5
	movl	$0, %eax
	leave
	.cfi_def_cfa 7, 8
	ret
	.cfi_endproc
.LFE7:
	.size	main, .-main
	.ident	"GCC: (Ubuntu 9.4.0-1ubuntu1~20.04.1) 9.4.0"
	.section	.note.GNU-stack,"",@progbits
	.section	.note.gnu.property,"a"
	.align 8
	.long	 1f - 0f
	.long	 4f - 1f
	.long	 5
0:
	.string	 "GNU"
1:
	.align 8
	.long	 0xc0000002
	.long	 3f - 2f
2:
	.long	 0x3
3:
	.align 8
4:
